target datalayout = "e-m:e-p270:32:32-p271:32:32-p272:64:64-i64:64-i128:128-f80:128-n8:16:32:64-S128"
target triple = "x86_64-pc-linux-gnu"

%struct.Map_NodeStruct_t_ = type { ptr, ptr, i32, i32, i32, i32, [3 x i32], [3 x float], float, ptr, ptr, ptr, ptr, [2 x %struct.Map_TimeStruct_t_], [2 x %struct.Map_TimeStruct_t_], [2 x ptr], ptr, ptr, ptr }
%struct.Map_TimeStruct_t_ = type { float, float, float }
%struct.Map_CutStruct_t_ = type { ptr, ptr, ptr, [6 x ptr], i32, i8, i8, i8, i8, [2 x %struct.Map_MatchStruct_t_] }
%struct.Map_MatchStruct_t_ = type { ptr, i32, i32, ptr, %struct.Map_TimeStruct_t_, float }
%struct.Map_CutTableStrutct_t = type { ptr, i32, ptr, i32, ptr, ptr, ptr }

@s_HashPrimes = internal global [10 x i32] [i32 109, i32 499, i32 557, i32 619, i32 631, i32 709, i32 797, i32 881, i32 907, i32 991], align 16

; Function Attrs: nounwind uwtable
define internal i32 @Map_CutTableHash(ptr noundef %0, i32 noundef %1) #0 {
  %3 = alloca ptr, align 8
  %4 = alloca i32, align 4
  %5 = alloca i32, align 4
  %6 = alloca i32, align 4
  store ptr %0, ptr %3, align 8, !tbaa !87
  store i32 %1, ptr %4, align 4, !tbaa !8
  call void @llvm.lifetime.start.p0(i64 4, ptr %5) #9
  call void @llvm.lifetime.start.p0(i64 4, ptr %6) #9
  store i32 0, ptr %5, align 4, !tbaa !8
  store i32 0, ptr %6, align 4, !tbaa !8
  br label %7

7:                                                ; preds = %26, %2
  %8 = load i32, ptr %6, align 4, !tbaa !8
  %9 = load i32, ptr %4, align 4, !tbaa !8
  %10 = icmp slt i32 %8, %9
  br i1 %10, label %11, label %29

11:                                               ; preds = %7
  %12 = load i32, ptr %6, align 4, !tbaa !8
  %13 = sext i32 %12 to i64
  %14 = getelementptr inbounds [10 x i32], ptr @s_HashPrimes, i64 0, i64 %13
  %15 = load i32, ptr %14, align 4, !tbaa !8
  %16 = load ptr, ptr %3, align 8, !tbaa !87
  %17 = load i32, ptr %6, align 4, !tbaa !8
  %18 = sext i32 %17 to i64
  %19 = getelementptr inbounds ptr, ptr %16, i64 %18
  %20 = load ptr, ptr %19, align 8, !tbaa !26
  %21 = getelementptr inbounds nuw %struct.Map_NodeStruct_t_, ptr %20, i32 0, i32 2
  %22 = load i32, ptr %21, align 8, !tbaa !97
  %23 = mul nsw i32 %15, %22
  %24 = load i32, ptr %5, align 4, !tbaa !8
  %25 = add i32 %24, %23
  store i32 %25, ptr %5, align 4, !tbaa !8
  br label %26

26:                                               ; preds = %11
  %27 = load i32, ptr %6, align 4, !tbaa !8
  %28 = add nsw i32 %27, 1
  store i32 %28, ptr %6, align 4, !tbaa !8
  br label %7, !llvm.loop !125

29:                                               ; preds = %7
  %30 = load i32, ptr %5, align 4, !tbaa !8
  call void @llvm.lifetime.end.p0(i64 4, ptr %6) #9
  call void @llvm.lifetime.end.p0(i64 4, ptr %5) #9
  ret i32 %30
}

; Function Attrs: nounwind uwtable
define internal i32 @Map_CutTableLookup(ptr noundef %0, ptr noundef %1, i32 noundef %2) #0 {
  %4 = alloca i32, align 4
  %5 = alloca ptr, align 8
  %6 = alloca ptr, align 8
  %7 = alloca i32, align 4
  %8 = alloca ptr, align 8
  %9 = alloca i32, align 4
  %10 = alloca i32, align 4
  %11 = alloca i32, align 4
  %12 = alloca i32, align 4
  store ptr %0, ptr %5, align 8, !tbaa !55
  store ptr %1, ptr %6, align 8, !tbaa !87
  store i32 %2, ptr %7, align 4, !tbaa !8
  call void @llvm.lifetime.start.p0(i64 8, ptr %8) #9
  call void @llvm.lifetime.start.p0(i64 4, ptr %9) #9
  call void @llvm.lifetime.start.p0(i64 4, ptr %10) #9
  call void @llvm.lifetime.start.p0(i64 4, ptr %11) #9
  %13 = load ptr, ptr %6, align 8, !tbaa !87
  %14 = load i32, ptr %7, align 4, !tbaa !8
  %15 = call i32 @Map_CutTableHash(ptr noundef %13, i32 noundef %14)
  %16 = load ptr, ptr %5, align 8, !tbaa !55
  %17 = getelementptr inbounds nuw %struct.Map_CutTableStrutct_t, ptr %16, i32 0, i32 1
  %18 = load i32, ptr %17, align 8, !tbaa !62
  %19 = urem i32 %15, %18
  store i32 %19, ptr %9, align 4, !tbaa !8
  %20 = load i32, ptr %9, align 4, !tbaa !8
  store i32 %20, ptr %10, align 4, !tbaa !8
  br label %21

21:                                               ; preds = %74, %3
  %22 = load ptr, ptr %5, align 8, !tbaa !55
  %23 = getelementptr inbounds nuw %struct.Map_CutTableStrutct_t, ptr %22, i32 0, i32 0
  %24 = load ptr, ptr %23, align 8, !tbaa !65
  %25 = load i32, ptr %10, align 4, !tbaa !8
  %26 = sext i32 %25 to i64
  %27 = getelementptr inbounds ptr, ptr %24, i64 %26
  %28 = load ptr, ptr %27, align 8, !tbaa !30
  %29 = icmp ne ptr %28, null
  br i1 %29, label %30, label %81

30:                                               ; preds = %21
  %31 = load ptr, ptr %5, align 8, !tbaa !55
  %32 = getelementptr inbounds nuw %struct.Map_CutTableStrutct_t, ptr %31, i32 0, i32 0
  %33 = load ptr, ptr %32, align 8, !tbaa !65
  %34 = load i32, ptr %10, align 4, !tbaa !8
  %35 = sext i32 %34 to i64
  %36 = getelementptr inbounds ptr, ptr %33, i64 %35
  %37 = load ptr, ptr %36, align 8, !tbaa !30
  store ptr %37, ptr %8, align 8, !tbaa !30
  %38 = load ptr, ptr %8, align 8, !tbaa !30
  %39 = getelementptr inbounds nuw %struct.Map_CutStruct_t_, ptr %38, i32 0, i32 5
  %40 = load i8, ptr %39, align 4, !tbaa !31
  %41 = sext i8 %40 to i32
  %42 = load i32, ptr %7, align 4, !tbaa !8
  %43 = icmp ne i32 %41, %42
  br i1 %43, label %44, label %45

44:                                               ; preds = %30
  br label %74

45:                                               ; preds = %30
  store i32 0, ptr %11, align 4, !tbaa !8
  br label %46

46:                                               ; preds = %65, %45
  %47 = load i32, ptr %11, align 4, !tbaa !8
  %48 = load i32, ptr %7, align 4, !tbaa !8
  %49 = icmp slt i32 %47, %48
  br i1 %49, label %50, label %68

50:                                               ; preds = %46
  %51 = load ptr, ptr %8, align 8, !tbaa !30
  %52 = getelementptr inbounds nuw %struct.Map_CutStruct_t_, ptr %51, i32 0, i32 3
  %53 = load i32, ptr %11, align 4, !tbaa !8
  %54 = sext i32 %53 to i64
  %55 = getelementptr inbounds [6 x ptr], ptr %52, i64 0, i64 %54
  %56 = load ptr, ptr %55, align 8, !tbaa !26
  %57 = load ptr, ptr %6, align 8, !tbaa !87
  %58 = load i32, ptr %11, align 4, !tbaa !8
  %59 = sext i32 %58 to i64
  %60 = getelementptr inbounds ptr, ptr %57, i64 %59
  %61 = load ptr, ptr %60, align 8, !tbaa !26
  %62 = icmp ne ptr %56, %61
  br i1 %62, label %63, label %64

63:                                               ; preds = %50
  br label %68

64:                                               ; preds = %50
  br label %65

65:                                               ; preds = %64
  %66 = load i32, ptr %11, align 4, !tbaa !8
  %67 = add nsw i32 %66, 1
  store i32 %67, ptr %11, align 4, !tbaa !8
  br label %46, !llvm.loop !123

68:                                               ; preds = %63, %46
  %69 = load i32, ptr %11, align 4, !tbaa !8
  %70 = load i32, ptr %7, align 4, !tbaa !8
  %71 = icmp eq i32 %69, %70
  br i1 %71, label %72, label %73

72:                                               ; preds = %68
  store i32 -1, ptr %4, align 4
  store i32 1, ptr %12, align 4
  br label %83

73:                                               ; preds = %68
  br label %74

74:                                               ; preds = %73, %44
  %75 = load i32, ptr %10, align 4, !tbaa !8
  %76 = add nsw i32 %75, 1
  %77 = load ptr, ptr %5, align 8, !tbaa !55
  %78 = getelementptr inbounds nuw %struct.Map_CutTableStrutct_t, ptr %77, i32 0, i32 1
  %79 = load i32, ptr %78, align 8, !tbaa !62
  %80 = srem i32 %76, %79
  store i32 %80, ptr %10, align 4, !tbaa !8
  br label %21, !llvm.loop !124

81:                                               ; preds = %21
  %82 = load i32, ptr %10, align 4, !tbaa !8
  store i32 %82, ptr %4, align 4
  store i32 1, ptr %12, align 4
  br label %83

83:                                               ; preds = %81, %72
  call void @llvm.lifetime.end.p0(i64 4, ptr %11) #9
  call void @llvm.lifetime.end.p0(i64 4, ptr %10) #9
  call void @llvm.lifetime.end.p0(i64 4, ptr %9) #9
  call void @llvm.lifetime.end.p0(i64 8, ptr %8) #9
  %84 = load i32, ptr %4, align 4
  ret i32 %84
}

; Function Attrs: nounwind uwtable
define internal ptr @Map_CutTableConsider(ptr noundef %0, ptr noundef %1, ptr noundef %2, i32 noundef %3) #0 {
  %5 = alloca ptr, align 8
  %6 = alloca ptr, align 8
  %7 = alloca ptr, align 8
  %8 = alloca ptr, align 8
  %9 = alloca i32, align 4
  %10 = alloca ptr, align 8
  %11 = alloca i32, align 4
  %12 = alloca i32, align 4
  %13 = alloca i32, align 4
  store ptr %0, ptr %6, align 8, !tbaa !3
  store ptr %1, ptr %7, align 8, !tbaa !55
  store ptr %2, ptr %8, align 8, !tbaa !87
  store i32 %3, ptr %9, align 4, !tbaa !8
  call void @llvm.lifetime.start.p0(i64 8, ptr %10) #9
  call void @llvm.lifetime.start.p0(i64 4, ptr %11) #9
  call void @llvm.lifetime.start.p0(i64 4, ptr %12) #9
  %14 = load ptr, ptr %7, align 8, !tbaa !55
  %15 = load ptr, ptr %8, align 8, !tbaa !87
  %16 = load i32, ptr %9, align 4, !tbaa !8
  %17 = call i32 @Map_CutTableLookup(ptr noundef %14, ptr noundef %15, i32 noundef %16)
  store i32 %17, ptr %11, align 4, !tbaa !8
  %18 = load i32, ptr %11, align 4, !tbaa !8
  %19 = icmp eq i32 %18, -1
  br i1 %19, label %20, label %21

20:                                               ; preds = %4
  store ptr null, ptr %5, align 8
  store i32 1, ptr %13, align 4
  br label %65

21:                                               ; preds = %4
  %22 = load ptr, ptr %6, align 8, !tbaa !3
  %23 = call ptr @Map_CutAlloc(ptr noundef %22)
  store ptr %23, ptr %10, align 8, !tbaa !30
  %24 = load i32, ptr %9, align 4, !tbaa !8
  %25 = trunc i32 %24 to i8
  %26 = load ptr, ptr %10, align 8, !tbaa !30
  %27 = getelementptr inbounds nuw %struct.Map_CutStruct_t_, ptr %26, i32 0, i32 5
  store i8 %25, ptr %27, align 4, !tbaa !31
  store i32 0, ptr %12, align 4, !tbaa !8
  br label %28

28:                                               ; preds = %43, %21
  %29 = load i32, ptr %12, align 4, !tbaa !8
  %30 = load i32, ptr %9, align 4, !tbaa !8
  %31 = icmp slt i32 %29, %30
  br i1 %31, label %32, label %46

32:                                               ; preds = %28
  %33 = load ptr, ptr %8, align 8, !tbaa !87
  %34 = load i32, ptr %12, align 4, !tbaa !8
  %35 = sext i32 %34 to i64
  %36 = getelementptr inbounds ptr, ptr %33, i64 %35
  %37 = load ptr, ptr %36, align 8, !tbaa !26
  %38 = load ptr, ptr %10, align 8, !tbaa !30
  %39 = getelementptr inbounds nuw %struct.Map_CutStruct_t_, ptr %38, i32 0, i32 3
  %40 = load i32, ptr %12, align 4, !tbaa !8
  %41 = sext i32 %40 to i64
  %42 = getelementptr inbounds [6 x ptr], ptr %39, i64 0, i64 %41
  store ptr %37, ptr %42, align 8, !tbaa !26
  br label %43

43:                                               ; preds = %32
  %44 = load i32, ptr %12, align 4, !tbaa !8
  %45 = add nsw i32 %44, 1
  store i32 %45, ptr %12, align 4, !tbaa !8
  br label %28, !llvm.loop !100

46:                                               ; preds = %28
  %47 = load ptr, ptr %10, align 8, !tbaa !30
  %48 = load ptr, ptr %7, align 8, !tbaa !55
  %49 = getelementptr inbounds nuw %struct.Map_CutTableStrutct_t, ptr %48, i32 0, i32 0
  %50 = load ptr, ptr %49, align 8, !tbaa !65
  %51 = load i32, ptr %11, align 4, !tbaa !8
  %52 = sext i32 %51 to i64
  %53 = getelementptr inbounds ptr, ptr %50, i64 %52
  store ptr %47, ptr %53, align 8, !tbaa !30
  %54 = load i32, ptr %11, align 4, !tbaa !8
  %55 = load ptr, ptr %7, align 8, !tbaa !55
  %56 = getelementptr inbounds nuw %struct.Map_CutTableStrutct_t, ptr %55, i32 0, i32 2
  %57 = load ptr, ptr %56, align 8, !tbaa !66
  %58 = load ptr, ptr %7, align 8, !tbaa !55
  %59 = getelementptr inbounds nuw %struct.Map_CutTableStrutct_t, ptr %58, i32 0, i32 3
  %60 = load i32, ptr %59, align 8, !tbaa !85
  %61 = add nsw i32 %60, 1
  store i32 %61, ptr %59, align 8, !tbaa !85
  %62 = sext i32 %60 to i64
  %63 = getelementptr inbounds i32, ptr %57, i64 %62
  store i32 %54, ptr %63, align 4, !tbaa !8
  %64 = load ptr, ptr %10, align 8, !tbaa !30
  store ptr %64, ptr %5, align 8
  store i32 1, ptr %13, align 4
  br label %65

65:                                               ; preds = %46, %20
  call void @llvm.lifetime.end.p0(i64 4, ptr %12) #9
  call void @llvm.lifetime.end.p0(i64 4, ptr %11) #9
  call void @llvm.lifetime.end.p0(i64 8, ptr %10) #9
  %66 = load ptr, ptr %5, align 8
  ret ptr %66
}