; Function Attrs: nounwind uwtable
define internal fastcc ptr @Map_CutTableConsider(ptr noundef %0, ptr noundef captures(none) %1, ptr noundef nonnull readonly captures(none) %2, i32 noundef %3) unnamed_addr #2 {
  %5 = icmp sgt i32 %3, 0
  br i1 %5, label %.lr.ph.preheader.i.i, label %Map_CutTableHash.exit.thread.i

.lr.ph.preheader.i.i:                             ; preds = %4
  %wide.trip.count.i.i = zext nneg i32 %3 to i64
  br label %.lr.ph.i.i

.lr.ph.i.i:                                       ; preds = %.lr.ph.i.i, %.lr.ph.preheader.i.i
  %indvars.iv.i.i = phi i64 [ 0, %.lr.ph.preheader.i.i ], [ %indvars.iv.next.i.i, %.lr.ph.i.i ]
  %.078.i.i = phi i32 [ 0, %.lr.ph.preheader.i.i ], [ %13, %.lr.ph.i.i ]
  %6 = getelementptr inbounds nuw [10 x i32], ptr @s_HashPrimes, i64 0, i64 %indvars.iv.i.i
  %7 = load i32, ptr %6, align 4, !tbaa !67
  %8 = getelementptr inbounds nuw ptr, ptr %2, i64 %indvars.iv.i.i
  %9 = load ptr, ptr %8, align 8, !tbaa !23
  %10 = getelementptr inbounds nuw i8, ptr %9, i64 16
  %11 = load i32, ptr %10, align 8, !tbaa !111
  %12 = mul nsw i32 %11, %7
  %13 = add i32 %12, %.078.i.i
  %indvars.iv.next.i.i = add nuw nsw i64 %indvars.iv.i.i, 1
  %exitcond.not.i.i = icmp eq i64 %indvars.iv.next.i.i, %wide.trip.count.i.i
  br i1 %exitcond.not.i.i, label %Map_CutTableHash.exit.i, label %.lr.ph.i.i, !llvm.loop !114

Map_CutTableHash.exit.i:                          ; preds = %.lr.ph.i.i
  %14 = getelementptr inbounds nuw i8, ptr %1, i64 8
  %15 = load i32, ptr %14, align 8, !tbaa !53
  %16 = urem i32 %13, %15
  %17 = load ptr, ptr %1, align 8, !tbaa !56
  %18 = sext i32 %16 to i64
  %19 = getelementptr inbounds ptr, ptr %17, i64 %18
  %20 = load ptr, ptr %19, align 8, !tbaa !24
  %.not31.i = icmp eq ptr %20, null
  br i1 %.not31.i, label %Map_CutTableLookup.exit.thread25, label %.lr.ph33.split.us.i

Map_CutTableHash.exit.thread.i:                   ; preds = %4
  %21 = getelementptr inbounds nuw i8, ptr %1, i64 8
  %22 = load i32, ptr %21, align 8, !tbaa !53
  %23 = load ptr, ptr %1, align 8, !tbaa !56
  %24 = load ptr, ptr %23, align 8, !tbaa !24
  %.not3153.i = icmp eq ptr %24, null
  br i1 %.not3153.i, label %Map_CutTableLookup.exit.thread25.thread, label %.lr.ph33.split.i

Map_CutTableLookup.exit.thread25.thread:          ; preds = %Map_CutTableHash.exit.thread.i
  %25 = tail call ptr @Map_CutAlloc(ptr noundef %0) #18
  %26 = trunc i32 %3 to i8
  %27 = getelementptr inbounds nuw i8, ptr %25, i64 76
  store i8 %26, ptr %27, align 4, !tbaa !26
  br label %._crit_edge

.lr.ph33.split.us.i:                              ; preds = %Map_CutTableHash.exit.i, %39
  %28 = phi ptr [ %44, %39 ], [ %20, %Map_CutTableHash.exit.i ]
  %.02232.us.i = phi i32 [ %41, %39 ], [ %16, %Map_CutTableHash.exit.i ]
  %29 = getelementptr inbounds nuw i8, ptr %28, i64 76
  %30 = load i8, ptr %29, align 4, !tbaa !26
  %31 = sext i8 %30 to i32
  %.not26.us.i = icmp eq i32 %3, %31
  br i1 %.not26.us.i, label %.preheader.us.i, label %39

32:                                               ; preds = %.preheader.us.i, %45
  %indvars.iv.i = phi i64 [ 0, %.preheader.us.i ], [ %indvars.iv.next.i, %45 ]
  %33 = getelementptr inbounds nuw [6 x ptr], ptr %46, i64 0, i64 %indvars.iv.i
  %34 = load ptr, ptr %33, align 8, !tbaa !23
  %35 = getelementptr inbounds nuw ptr, ptr %2, i64 %indvars.iv.i
  %36 = load ptr, ptr %35, align 8, !tbaa !23
  %.not27.us.i = icmp eq ptr %34, %36
  br i1 %.not27.us.i, label %45, label %._crit_edge.us.i

._crit_edge.us.i:                                 ; preds = %32
  %37 = trunc nuw nsw i64 %indvars.iv.i to i32
  %38 = icmp eq i32 %3, %37
  br i1 %38, label %Map_CutTableLookup.exit.thread, label %39

39:                                               ; preds = %._crit_edge.us.i, %.lr.ph33.split.us.i
  %40 = add nsw i32 %.02232.us.i, 1
  %41 = srem i32 %40, %15
  %42 = sext i32 %41 to i64
  %43 = getelementptr inbounds ptr, ptr %17, i64 %42
  %44 = load ptr, ptr %43, align 8, !tbaa !24
  %.not.us.i = icmp eq ptr %44, null
  br i1 %.not.us.i, label %Map_CutTableLookup.exit, label %.lr.ph33.split.us.i, !llvm.loop !115

45:                                               ; preds = %32
  %indvars.iv.next.i = add nuw nsw i64 %indvars.iv.i, 1
  %exitcond.not.i = icmp eq i64 %indvars.iv.next.i, %wide.trip.count.i.i
  br i1 %exitcond.not.i, label %Map_CutTableLookup.exit.thread, label %32, !llvm.loop !116

.preheader.us.i:                                  ; preds = %.lr.ph33.split.us.i
  %46 = getelementptr inbounds nuw i8, ptr %28, i64 24
  br label %32

.lr.ph33.split.i:                                 ; preds = %Map_CutTableHash.exit.thread.i
  %47 = icmp eq i32 %3, 0
  br i1 %47, label %.lr.ph33.split.split.us.i, label %.lr.ph33.split.split.i

.lr.ph33.split.split.us.i:                        ; preds = %.lr.ph33.split.i, %51
  %48 = phi ptr [ %56, %51 ], [ %24, %.lr.ph33.split.i ]
  %.02232.us39.i = phi i32 [ %53, %51 ], [ 0, %.lr.ph33.split.i ]
  %49 = getelementptr inbounds nuw i8, ptr %48, i64 76
  %50 = load i8, ptr %49, align 4, !tbaa !26
  %.not26.us40.i = icmp eq i8 %50, 0
  br i1 %.not26.us40.i, label %Map_CutTableLookup.exit.thread, label %51

51:                                               ; preds = %.lr.ph33.split.split.us.i
  %52 = add nsw i32 %.02232.us39.i, 1
  %53 = srem i32 %52, %22
  %54 = sext i32 %53 to i64
  %55 = getelementptr inbounds ptr, ptr %23, i64 %54
  %56 = load ptr, ptr %55, align 8, !tbaa !24
  %.not.us41.i = icmp eq ptr %56, null
  br i1 %.not.us41.i, label %Map_CutTableLookup.exit, label %.lr.ph33.split.split.us.i, !llvm.loop !115

.lr.ph33.split.split.i:                           ; preds = %.lr.ph33.split.i, %.lr.ph33.split.split.i
  %.02232.i = phi i32 [ %58, %.lr.ph33.split.split.i ], [ 0, %.lr.ph33.split.i ]
  %57 = add nsw i32 %.02232.i, 1
  %58 = srem i32 %57, %22
  %59 = sext i32 %58 to i64
  %60 = getelementptr inbounds ptr, ptr %23, i64 %59
  %61 = load ptr, ptr %60, align 8, !tbaa !24
  %.not.i = icmp eq ptr %61, null
  br i1 %.not.i, label %Map_CutTableLookup.exit, label %.lr.ph33.split.split.i, !llvm.loop !115

Map_CutTableLookup.exit:                          ; preds = %.lr.ph33.split.split.i, %51, %39
  %.023.i = phi i32 [ %41, %39 ], [ %53, %51 ], [ %58, %.lr.ph33.split.split.i ]
  %62 = icmp eq i32 %.023.i, -1
  br i1 %62, label %Map_CutTableLookup.exit.thread, label %Map_CutTableLookup.exit.thread25

Map_CutTableLookup.exit.thread25:                 ; preds = %Map_CutTableHash.exit.i, %Map_CutTableLookup.exit
  %.023.i27 = phi i32 [ %.023.i, %Map_CutTableLookup.exit ], [ %16, %Map_CutTableHash.exit.i ]
  %63 = tail call ptr @Map_CutAlloc(ptr noundef %0) #18
  %64 = trunc i32 %3 to i8
  %65 = getelementptr inbounds nuw i8, ptr %63, i64 76
  store i8 %64, ptr %65, align 4, !tbaa !26
  br i1 %5, label %.lr.ph, label %._crit_edge

.lr.ph:                                           ; preds = %Map_CutTableLookup.exit.thread25
  %66 = getelementptr inbounds nuw i8, ptr %63, i64 24
  %wide.trip.count = zext nneg i32 %3 to i64
  br label %67

67:                                               ; preds = %.lr.ph, %67
  %indvars.iv = phi i64 [ 0, %.lr.ph ], [ %indvars.iv.next, %67 ]
  %68 = getelementptr inbounds nuw ptr, ptr %2, i64 %indvars.iv
  %69 = load ptr, ptr %68, align 8, !tbaa !23
  %70 = getelementptr inbounds nuw [6 x ptr], ptr %66, i64 0, i64 %indvars.iv
  store ptr %69, ptr %70, align 8, !tbaa !23
  %indvars.iv.next = add nuw nsw i64 %indvars.iv, 1
  %exitcond.not = icmp eq i64 %indvars.iv.next, %wide.trip.count
  br i1 %exitcond.not, label %._crit_edge, label %67, !llvm.loop !117

._crit_edge:                                      ; preds = %67, %Map_CutTableLookup.exit.thread25.thread, %Map_CutTableLookup.exit.thread25
  %71 = phi ptr [ %25, %Map_CutTableLookup.exit.thread25.thread ], [ %63, %Map_CutTableLookup.exit.thread25 ], [ %63, %67 ]
  %.023.i2747 = phi i32 [ 0, %Map_CutTableLookup.exit.thread25.thread ], [ %.023.i27, %Map_CutTableLookup.exit.thread25 ], [ %.023.i27, %67 ]
  %72 = load ptr, ptr %1, align 8, !tbaa !56
  %73 = sext i32 %.023.i2747 to i64
  %74 = getelementptr inbounds ptr, ptr %72, i64 %73
  store ptr %71, ptr %74, align 8, !tbaa !24
  %75 = getelementptr inbounds nuw i8, ptr %1, i64 16
  %76 = load ptr, ptr %75, align 8, !tbaa !57
  %77 = getelementptr inbounds nuw i8, ptr %1, i64 24
  %78 = load i32, ptr %77, align 8, !tbaa !66
  %79 = add nsw i32 %78, 1
  store i32 %79, ptr %77, align 8, !tbaa !66
  %80 = sext i32 %78 to i64
  %81 = getelementptr inbounds i32, ptr %76, i64 %80
  store i32 %.023.i2747, ptr %81, align 4, !tbaa !67
  br label %Map_CutTableLookup.exit.thread

Map_CutTableLookup.exit.thread:                   ; preds = %.lr.ph33.split.split.us.i, %._crit_edge.us.i, %45, %Map_CutTableLookup.exit, %._crit_edge
  %.021 = phi ptr [ %71, %._crit_edge ], [ null, %Map_CutTableLookup.exit ], [ null, %45 ], [ null, %._crit_edge.us.i ], [ null, %.lr.ph33.split.split.us.i ]
  ret ptr %.021
}